target datalayout = "e-m:e-p270:32:32-p271:32:32-p272:64:64-i64:64-i128:128-f80:128-n8:16:32:64-S128"
target triple = "x86_64-pc-linux-gnu"

%struct._internalPQconninfoOption = type { ptr, ptr, ptr, ptr, ptr, ptr, i32, i64 }

@.str = private unnamed_addr constant [14 x i8] c"out of memory\00", align 1

; Function Attrs: nounwind uwtable
define zeroext i1 @pqCopyPGconn(ptr noundef %0, ptr noundef %1) #0 {
  %3 = alloca i1, align 1
  %4 = alloca ptr, align 8
  %5 = alloca ptr, align 8
  %6 = alloca ptr, align 8
  %7 = alloca ptr, align 8
  %8 = alloca ptr, align 8
  %9 = alloca i32, align 4
  store ptr %0, ptr %4, align 8
  store ptr %1, ptr %5, align 8
  call void @llvm.lifetime.start.p0(i64 8, ptr %6) #12
  store ptr @PQconninfoOptions, ptr %6, align 8
  br label %10

10:                                               ; preds = %60, %2
  %11 = load ptr, ptr %6, align 8
  %12 = getelementptr inbounds nuw %struct._internalPQconninfoOption, ptr %11, i32 0, i32 0
  %13 = load ptr, ptr %12, align 8
  %14 = icmp ne ptr %13, null
  br i1 %14, label %15, label %63

15:                                               ; preds = %10
  %16 = load ptr, ptr %6, align 8
  %17 = getelementptr inbounds nuw %struct._internalPQconninfoOption, ptr %16, i32 0, i32 7
  %18 = load i64, ptr %17, align 8
  %19 = icmp sge i64 %18, 0
  br i1 %19, label %20, label %59

20:                                               ; preds = %15
  call void @llvm.lifetime.start.p0(i64 8, ptr %7) #12
  %21 = load ptr, ptr %4, align 8
  %22 = load ptr, ptr %6, align 8
  %23 = getelementptr inbounds nuw %struct._internalPQconninfoOption, ptr %22, i32 0, i32 7
  %24 = load i64, ptr %23, align 8
  %25 = getelementptr inbounds i8, ptr %21, i64 %24
  store ptr %25, ptr %7, align 8
  %26 = load ptr, ptr %7, align 8
  %27 = load ptr, ptr %26, align 8
  %28 = icmp ne ptr %27, null
  br i1 %28, label %29, label %55

29:                                               ; preds = %20
  call void @llvm.lifetime.start.p0(i64 8, ptr %8) #12
  %30 = load ptr, ptr %5, align 8
  %31 = load ptr, ptr %6, align 8
  %32 = getelementptr inbounds nuw %struct._internalPQconninfoOption, ptr %31, i32 0, i32 7
  %33 = load i64, ptr %32, align 8
  %34 = getelementptr inbounds i8, ptr %30, i64 %33
  store ptr %34, ptr %8, align 8
  %35 = load ptr, ptr %8, align 8
  %36 = load ptr, ptr %35, align 8
  %37 = icmp ne ptr %36, null
  br i1 %37, label %38, label %41

38:                                               ; preds = %29
  %39 = load ptr, ptr %8, align 8
  %40 = load ptr, ptr %39, align 8
  call void @free(ptr noundef %40) #12
  br label %41

41:                                               ; preds = %38, %29
  %42 = load ptr, ptr %7, align 8
  %43 = load ptr, ptr %42, align 8
  %44 = call noalias ptr @strdup(ptr noundef %43) #12
  %45 = load ptr, ptr %8, align 8
  store ptr %44, ptr %45, align 8
  %46 = load ptr, ptr %8, align 8
  %47 = load ptr, ptr %46, align 8
  %48 = icmp eq ptr %47, null
  br i1 %48, label %49, label %51

49:                                               ; preds = %41
  %50 = load ptr, ptr %5, align 8
  call void (ptr, ptr, ...) @libpq_append_conn_error(ptr noundef %50, ptr noundef @.str)
  store i1 false, ptr %3, align 1
  store i32 1, ptr %9, align 4
  br label %52

51:                                               ; preds = %41
  store i32 0, ptr %9, align 4
  br label %52

52:                                               ; preds = %51, %49
  call void @llvm.lifetime.end.p0(i64 8, ptr %8) #12
  %53 = load i32, ptr %9, align 4
  switch i32 %53, label %56 [
    i32 0, label %54
  ]

54:                                               ; preds = %52
  br label %55

55:                                               ; preds = %54, %20
  store i32 0, ptr %9, align 4
  br label %56

56:                                               ; preds = %55, %52
  call void @llvm.lifetime.end.p0(i64 8, ptr %7) #12
  %57 = load i32, ptr %9, align 4
  switch i32 %57, label %64 [
    i32 0, label %58
  ]

58:                                               ; preds = %56
  br label %59

59:                                               ; preds = %58, %15
  br label %60

60:                                               ; preds = %59
  %61 = load ptr, ptr %6, align 8
  %62 = getelementptr inbounds nuw %struct._internalPQconninfoOption, ptr %61, i32 1
  store ptr %62, ptr %6, align 8
  br label %10, !llvm.loop !24

63:                                               ; preds = %10
  store i1 true, ptr %3, align 1
  store i32 1, ptr %9, align 4
  br label %64

64:                                               ; preds = %63, %56
  call void @llvm.lifetime.end.p0(i64 8, ptr %6) #12
  %65 = load i1, ptr %3, align 1
  ret i1 %65
}