; Function Attrs: nounwind uwtable
define noundef zeroext i1 @pqCopyPGconn(ptr noundef readonly captures(none) %0, ptr noundef %1) local_unnamed_addr #0 {
  br label %3

3:                                                ; preds = %2, %.critedge26
  %.01929 = phi ptr [ @PQconninfoOptions, %2 ], [ %18, %.critedge26 ]
  %4 = getelementptr inbounds nuw i8, ptr %.01929, i64 56
  %5 = load i64, ptr %4, align 8
  %6 = icmp sgt i64 %5, -1
  br i1 %6, label %7, label %.critedge26

7:                                                ; preds = %3
  %8 = getelementptr inbounds nuw i8, ptr %0, i64 %5
  %9 = load ptr, ptr %8, align 8
  %.not22 = icmp eq ptr %9, null
  br i1 %.not22, label %.critedge26, label %10

10:                                               ; preds = %7
  %11 = getelementptr inbounds nuw i8, ptr %1, i64 %5
  %12 = load ptr, ptr %11, align 8
  %.not23 = icmp eq ptr %12, null
  br i1 %.not23, label %14, label %13

13:                                               ; preds = %10
  tail call void @free(ptr noundef nonnull %12) #25
  %.pre = load ptr, ptr %8, align 8
  br label %14

14:                                               ; preds = %13, %10
  %15 = phi ptr [ %.pre, %13 ], [ %9, %10 ]
  %16 = tail call noalias ptr @strdup(ptr noundef %15) #25
  store ptr %16, ptr %11, align 8
  %.not24 = icmp eq ptr %16, null
  br i1 %.not24, label %17, label %.critedge26

17:                                               ; preds = %14
  tail call void (ptr, ptr, ...) @libpq_append_conn_error(ptr noundef nonnull %1, ptr noundef nonnull @.str) #25
  br label %.loopexit

.critedge26:                                      ; preds = %7, %14, %3
  %18 = getelementptr inbounds nuw i8, ptr %.01929, i64 64
  %19 = load ptr, ptr %18, align 8
  %.not = icmp eq ptr %19, null
  br i1 %.not, label %.loopexit, label %3, !llvm.loop !29

.loopexit:                                        ; preds = %.critedge26, %17
  %.not28 = phi i1 [ false, %17 ], [ true, %.critedge26 ]
  ret i1 %.not28
}